target datalayout = "e-m:e-p270:32:32-p271:32:32-p272:64:64-i64:64-i128:128-f80:128-n8:16:32:64-S128"
target triple = "x86_64-pc-linux-gnu"

%struct.IDAMemRec = type { ptr, double, ptr, ptr, i32, double, double, ptr, i32, i32, ptr, ptr, i32, i32, i32, ptr, ptr, i32, i32, double, double, ptr, i32, i32, i32, i32, ptr, ptr, i32, ptr, ptr, ptr, i32, double, i32, i32, double, ptr, ptr, ptr, i32, ptr, ptr, i32, i32, i32, double, ptr, ptr, ptr, [6 x ptr], [6 x double], [6 x double], [6 x double], [6 x double], [6 x double], ptr, ptr, ptr, ptr, ptr, ptr, ptr, ptr, ptr, ptr, ptr, ptr, ptr, ptr, ptr, ptr, ptr, [6 x ptr], ptr, ptr, ptr, ptr, [6 x ptr], ptr, ptr, ptr, ptr, ptr, ptr, ptr, ptr, ptr, ptr, ptr, ptr, ptr, ptr, ptr, ptr, [6 x ptr], ptr, ptr, ptr, ptr, ptr, double, ptr, ptr, i32, i32, i32, i32, i32, i32, i32, i32, double, double, double, i32, double, i32, i32, i32, i32, i32, double, double, double, double, double, double, double, double, double, double, double, double, double, double, double, double, double, i32, i32, i32, i32, i64, double, double, double, double, double, double, double, double, double, i64, i64, i64, i64, i64, i64, i64, i64, i64, i64, i64, i64, i64, i64, i64, i64, i64, i64, i64, i64, i64, i64, i64, i64, i64, i64, double, i32, i32, i32, i32, i32, i32, i32, i32, i32, i32, i32, i32, i32, ptr, i32, ptr, i32, ptr, i32, ptr, ptr, ptr, ptr, ptr, ptr, i32, i32, ptr, ptr, ptr, ptr, ptr, ptr, ptr, double, i32, i32, ptr, i32, ptr, ptr, double, double, double, ptr, ptr, ptr, double, double, i32, i32, i64, ptr, i32, ptr, [5 x double], ptr, ptr, i32, ptr, i32 }

@.str = private unnamed_addr constant [114 x i8] c"generated/home/dtcxzyw/WorkSpace/Projects/compilers/llvm-opt-benchmark/bench/sundials/sundials/src/idas/idas_io.c\00", align 1
@.str.1 = private unnamed_addr constant [24 x i8] c"ida_mem = NULL illegal.\00", align 1
@__func__.IDASetMinStep = private unnamed_addr constant [14 x i8] c"IDASetMinStep\00", align 1
@.str.5 = private unnamed_addr constant [18 x i8] c"hmin < 0 illegal.\00", align 1

; Function Attrs: nounwind uwtable
define i32 @IDASetMinStep(ptr noundef %0, double noundef %1) #0 {
  %3 = alloca i32, align 4
  %4 = alloca ptr, align 8
  %5 = alloca double, align 8
  %6 = alloca ptr, align 8
  store ptr %0, ptr %4, align 8
  store double %1, ptr %5, align 8
  %7 = load ptr, ptr %4, align 8
  %8 = icmp eq ptr %7, null
  br i1 %8, label %9, label %10

9:                                                ; preds = %2
  call void (ptr, i32, i32, ptr, ptr, ptr, ...) @IDAProcessError(ptr noundef null, i32 noundef -20, i32 noundef 330, ptr noundef @__func__.IDASetMinStep, ptr noundef @.str, ptr noundef @.str.1)
  store i32 -20, ptr %3, align 4
  br label %26

10:                                               ; preds = %2
  %11 = load ptr, ptr %4, align 8
  store ptr %11, ptr %6, align 8
  %12 = load double, ptr %5, align 8
  %13 = fcmp olt double %12, 0.000000e+00
  br i1 %13, label %14, label %16

14:                                               ; preds = %10
  %15 = load ptr, ptr %6, align 8
  call void (ptr, i32, i32, ptr, ptr, ptr, ...) @IDAProcessError(ptr noundef %15, i32 noundef -22, i32 noundef 338, ptr noundef @__func__.IDASetMinStep, ptr noundef @.str, ptr noundef @.str.5)
  store i32 -22, ptr %3, align 4
  br label %26

16:                                               ; preds = %10
  %17 = load double, ptr %5, align 8
  %18 = fcmp oeq double %17, 0.000000e+00
  br i1 %18, label %19, label %22

19:                                               ; preds = %16
  %20 = load ptr, ptr %6, align 8
  %21 = getelementptr inbounds %struct.IDAMemRec, ptr %20, i32 0, i32 145
  store double 0.000000e+00, ptr %21, align 8
  store i32 0, ptr %3, align 4
  br label %26

22:                                               ; preds = %16
  %23 = load double, ptr %5, align 8
  %24 = load ptr, ptr %6, align 8
  %25 = getelementptr inbounds %struct.IDAMemRec, ptr %24, i32 0, i32 145
  store double %23, ptr %25, align 8
  store i32 0, ptr %3, align 4
  br label %26

26:                                               ; preds = %22, %19, %14, %9
  %27 = load i32, ptr %3, align 4
  ret i32 %27
}