; Function Attrs: nounwind uwtable
define range(i32 -22, 1) i32 @IDASetMinStep(ptr noundef %0, double noundef %1) local_unnamed_addr #0 {
  %3 = icmp eq ptr %0, null
  br i1 %3, label %4, label %5

4:                                                ; preds = %2
  tail call void (ptr, i32, i32, ptr, ptr, ptr, ...) @IDAProcessError(ptr noundef null, i32 noundef -20, i32 noundef 330, ptr noundef nonnull @__func__.IDASetMinStep, ptr noundef nonnull @.str, ptr noundef nonnull @.str.1) #9
  br label %13

5:                                                ; preds = %2
  %6 = fcmp olt double %1, 0.000000e+00
  br i1 %6, label %7, label %8

7:                                                ; preds = %5
  tail call void (ptr, i32, i32, ptr, ptr, ptr, ...) @IDAProcessError(ptr noundef nonnull %0, i32 noundef -22, i32 noundef 338, ptr noundef nonnull @__func__.IDASetMinStep, ptr noundef nonnull @.str, ptr noundef nonnull @.str.5) #9
  br label %13

8:                                                ; preds = %5
  %9 = fcmp oeq double %1, 0.000000e+00
  %10 = getelementptr inbounds nuw i8, ptr %0, i64 1400
  br i1 %9, label %11, label %12

11:                                               ; preds = %8
  store double 0.000000e+00, ptr %10, align 8
  br label %13

12:                                               ; preds = %8
  store double %1, ptr %10, align 8
  br label %13

13:                                               ; preds = %12, %11, %7, %4
  %.0 = phi i32 [ -20, %4 ], [ -22, %7 ], [ 0, %11 ], [ 0, %12 ]
  ret i32 %.0
}